target datalayout = "e-m:e-p270:32:32-p271:32:32-p272:64:64-i64:64-i128:128-f80:128-n8:16:32:64-S128"
target triple = "x86_64-pc-linux-gnu"

%"class.std::__cxx11::basic_string" = type { %"struct.std::__cxx11::basic_string<char>::_Alloc_hider", i64, %union.anon }
%"struct.std::__cxx11::basic_string<char>::_Alloc_hider" = type { ptr }
%union.anon = type { i64, [8 x i8] }
%"struct.std::_Vector_base" = type { %"struct.std::_Vector_base<std::__cxx11::basic_string<char>, std::allocator<std::__cxx11::basic_string<char>>>::_Vector_impl" }
%"struct.std::_Vector_base<std::__cxx11::basic_string<char>, std::allocator<std::__cxx11::basic_string<char>>>::_Vector_impl" = type { %"struct.std::_Vector_base<std::__cxx11::basic_string<char>, std::allocator<std::__cxx11::basic_string<char>>>::_Vector_impl_data" }
%"struct.std::_Vector_base<std::__cxx11::basic_string<char>, std::allocator<std::__cxx11::basic_string<char>>>::_Vector_impl_data" = type { ptr, ptr, ptr }

@_ZN12_GLOBAL__N_116xorshift32_stateE = internal global i32 123456789, align 4
@.str.11 = private unnamed_addr constant [3 x i8] c"-n\00", align 1
@.str.12 = private unnamed_addr constant [3 x i8] c"-s\00", align 1

; Function Attrs: mustprogress nounwind uwtable
define available_externally noundef ptr @_ZNKSt7__cxx1112basic_stringIcSt11char_traitsIcESaIcEE7_M_dataEv(ptr noundef nonnull align 8 dereferenceable(32) %0) #6 align 2 {
  %2 = alloca ptr, align 8
  store ptr %0, ptr %2, align 8, !tbaa !15
  %3 = load ptr, ptr %2, align 8
  %4 = getelementptr inbounds nuw %"class.std::__cxx11::basic_string", ptr %3, i32 0, i32 0
  %5 = getelementptr inbounds nuw %"struct.std::__cxx11::basic_string<char>::_Alloc_hider", ptr %4, i32 0, i32 0
  %6 = load ptr, ptr %5, align 8, !tbaa !40
  ret ptr %6
}

; Function Attrs: mustprogress nounwind uwtable
define linkonce_odr noundef i64 @_ZNKSt6vectorINSt7__cxx1112basic_stringIcSt11char_traitsIcESaIcEEESaIS5_EE4sizeEv(ptr noundef nonnull align 8 dereferenceable(24) %0) #6 comdat align 2 {
  %2 = alloca ptr, align 8
  store ptr %0, ptr %2, align 8, !tbaa !21
  %3 = load ptr, ptr %2, align 8
  %4 = getelementptr inbounds nuw %"struct.std::_Vector_base", ptr %3, i32 0, i32 0
  %5 = getelementptr inbounds nuw %"struct.std::_Vector_base<std::__cxx11::basic_string<char>, std::allocator<std::__cxx11::basic_string<char>>>::_Vector_impl_data", ptr %4, i32 0, i32 1
  %6 = load ptr, ptr %5, align 8, !tbaa !97
  %7 = getelementptr inbounds nuw %"struct.std::_Vector_base", ptr %3, i32 0, i32 0
  %8 = getelementptr inbounds nuw %"struct.std::_Vector_base<std::__cxx11::basic_string<char>, std::allocator<std::__cxx11::basic_string<char>>>::_Vector_impl_data", ptr %7, i32 0, i32 0
  %9 = load ptr, ptr %8, align 8, !tbaa !49
  %10 = ptrtoint ptr %6 to i64
  %11 = ptrtoint ptr %9 to i64
  %12 = sub i64 %10, %11
  %13 = sdiv exact i64 %12, 32
  ret i64 %13
}

; Function Attrs: inlinehint mustprogress nounwind willreturn memory(read) uwtable
define available_externally i32 @atoi(ptr noundef nonnull %0) #14 {
  %2 = alloca ptr, align 8
  store ptr %0, ptr %2, align 8, !tbaa !17
  %3 = load ptr, ptr %2, align 8, !tbaa !17
  %4 = call i64 @strtol(ptr noundef %3, ptr noundef null, i32 noundef 10) #3
  %5 = trunc i64 %4 to i32
  ret i32 %5
}

; Function Attrs: mustprogress nounwind uwtable
define available_externally noundef ptr @_ZNKSt7__cxx1112basic_stringIcSt11char_traitsIcESaIcEE5c_strEv(ptr noundef nonnull align 8 dereferenceable(32) %0) #6 align 2 {
  %2 = alloca ptr, align 8
  store ptr %0, ptr %2, align 8, !tbaa !15
  %3 = load ptr, ptr %2, align 8
  %4 = call noundef ptr @_ZNKSt7__cxx1112basic_stringIcSt11char_traitsIcESaIcEE7_M_dataEv(ptr noundef nonnull align 8 dereferenceable(32) %3)
  ret ptr %4
}

; Function Attrs: inlinehint mustprogress nounwind uwtable
define linkonce_odr noundef zeroext i1 @_ZSteqIcSt11char_traitsIcESaIcEEbRKNSt7__cxx1112basic_stringIT_T0_T1_EEPKS5_(ptr noundef nonnull align 8 dereferenceable(32) %0, ptr noundef %1) #7 comdat {
  %3 = alloca ptr, align 8
  %4 = alloca ptr, align 8
  store ptr %0, ptr %3, align 8, !tbaa !15
  store ptr %1, ptr %4, align 8, !tbaa !17
  %5 = load ptr, ptr %3, align 8, !tbaa !15
  %6 = load ptr, ptr %4, align 8, !tbaa !17
  %7 = call noundef i32 @_ZNKSt7__cxx1112basic_stringIcSt11char_traitsIcESaIcEE7compareEPKc(ptr noundef nonnull align 8 dereferenceable(32) %5, ptr noundef %6) #3
  %8 = icmp eq i32 %7, 0
  ret i1 %8
}

; Function Attrs: mustprogress nounwind uwtable
define linkonce_odr noundef nonnull align 8 dereferenceable(32) ptr @_ZNSt6vectorINSt7__cxx1112basic_stringIcSt11char_traitsIcESaIcEEESaIS5_EEixEm(ptr noundef nonnull align 8 dereferenceable(24) %0, i64 noundef %1) #6 comdat align 2 {
  %3 = alloca ptr, align 8
  %4 = alloca i64, align 8
  store ptr %0, ptr %3, align 8, !tbaa !21
  store i64 %1, ptr %4, align 8, !tbaa !36
  %5 = load ptr, ptr %3, align 8
  %6 = getelementptr inbounds nuw %"struct.std::_Vector_base", ptr %5, i32 0, i32 0
  %7 = getelementptr inbounds nuw %"struct.std::_Vector_base<std::__cxx11::basic_string<char>, std::allocator<std::__cxx11::basic_string<char>>>::_Vector_impl_data", ptr %6, i32 0, i32 0
  %8 = load ptr, ptr %7, align 8, !tbaa !49
  %9 = load i64, ptr %4, align 8, !tbaa !36
  %10 = getelementptr inbounds nuw %"class.std::__cxx11::basic_string", ptr %8, i64 %9
  ret ptr %10
}

; Function Attrs: mustprogress nounwind uwtable
define linkonce_odr noundef i32 @_ZN5Yosys7GetSizeISt6vectorINSt7__cxx1112basic_stringIcSt11char_traitsIcESaIcEEESaIS7_EEEEiRKT_(ptr noundef nonnull align 8 dereferenceable(24) %0) #6 comdat {
  %2 = alloca ptr, align 8
  store ptr %0, ptr %2, align 8, !tbaa !21
  %3 = load ptr, ptr %2, align 8, !tbaa !21
  %4 = call noundef i64 @_ZNKSt6vectorINSt7__cxx1112basic_stringIcSt11char_traitsIcESaIcEEESaIS5_EE4sizeEv(ptr noundef nonnull align 8 dereferenceable(24) %3) #3
  %5 = trunc i64 %4 to i32
  ret i32 %5
}

; Function Attrs: mustprogress uwtable
define internal void @_ZN12_GLOBAL__N_115TestAbcloopPass7executeESt6vectorINSt7__cxx1112basic_stringIcSt11char_traitsIcESaIcEEESaIS7_EEPN5Yosys5RTLIL6DesignE(ptr noundef nonnull align 8 dereferenceable(104) %0, ptr noundef %1, ptr noundef %2) unnamed_addr #4 align 2 {
  %4 = alloca ptr, align 8
  %5 = alloca ptr, align 8
  %6 = alloca ptr, align 8
  %7 = alloca i32, align 4
  %8 = alloca i32, align 4
  %9 = alloca i32, align 4
  store ptr %0, ptr %4, align 8, !tbaa !6
  store ptr %1, ptr %5, align 8, !tbaa !21
  store ptr %2, ptr %6, align 8, !tbaa !23
  call void @llvm.lifetime.start.p0(i64 4, ptr %7) #3
  store i32 100, ptr %7, align 4, !tbaa !25
  store i32 0, ptr @_ZN12_GLOBAL__N_116xorshift32_stateE, align 4, !tbaa !25
  call void @llvm.lifetime.start.p0(i64 4, ptr %8) #3
  store i32 1, ptr %8, align 4, !tbaa !25
  br label %10

10:                                               ; preds = %49, %3
  %11 = load i32, ptr %8, align 4, !tbaa !25
  %12 = call noundef i32 @_ZN5Yosys7GetSizeISt6vectorINSt7__cxx1112basic_stringIcSt11char_traitsIcESaIcEEESaIS7_EEEEiRKT_(ptr noundef nonnull align 8 dereferenceable(24) %1)
  %13 = icmp slt i32 %11, %12
  br i1 %13, label %14, label %52

14:                                               ; preds = %10
  %15 = load i32, ptr %8, align 4, !tbaa !25
  %16 = sext i32 %15 to i64
  %17 = call noundef nonnull align 8 dereferenceable(32) ptr @_ZNSt6vectorINSt7__cxx1112basic_stringIcSt11char_traitsIcESaIcEEESaIS5_EEixEm(ptr noundef nonnull align 8 dereferenceable(24) %1, i64 noundef %16) #3
  %18 = call noundef zeroext i1 @_ZSteqIcSt11char_traitsIcESaIcEEbRKNSt7__cxx1112basic_stringIT_T0_T1_EEPKS5_(ptr noundef nonnull align 8 dereferenceable(32) %17, ptr noundef @.str.11)
  br i1 %18, label %19, label %31

19:                                               ; preds = %14
  %20 = load i32, ptr %8, align 4, !tbaa !25
  %21 = add nsw i32 %20, 1
  %22 = call noundef i32 @_ZN5Yosys7GetSizeISt6vectorINSt7__cxx1112basic_stringIcSt11char_traitsIcESaIcEEESaIS7_EEEEiRKT_(ptr noundef nonnull align 8 dereferenceable(24) %1)
  %23 = icmp slt i32 %21, %22
  br i1 %23, label %24, label %31

24:                                               ; preds = %19
  %25 = load i32, ptr %8, align 4, !tbaa !25
  %26 = add nsw i32 %25, 1
  store i32 %26, ptr %8, align 4, !tbaa !25
  %27 = sext i32 %26 to i64
  %28 = call noundef nonnull align 8 dereferenceable(32) ptr @_ZNSt6vectorINSt7__cxx1112basic_stringIcSt11char_traitsIcESaIcEEESaIS5_EEixEm(ptr noundef nonnull align 8 dereferenceable(24) %1, i64 noundef %27) #3
  %29 = call noundef ptr @_ZNKSt7__cxx1112basic_stringIcSt11char_traitsIcESaIcEE5c_strEv(ptr noundef nonnull align 8 dereferenceable(32) %28) #3
  %30 = call i32 @atoi(ptr noundef %29) #23
  store i32 %30, ptr %7, align 4, !tbaa !25
  br label %49

31:                                               ; preds = %19, %14
  %32 = load i32, ptr %8, align 4, !tbaa !25
  %33 = sext i32 %32 to i64
  %34 = call noundef nonnull align 8 dereferenceable(32) ptr @_ZNSt6vectorINSt7__cxx1112basic_stringIcSt11char_traitsIcESaIcEEESaIS5_EEixEm(ptr noundef nonnull align 8 dereferenceable(24) %1, i64 noundef %33) #3
  %35 = call noundef zeroext i1 @_ZSteqIcSt11char_traitsIcESaIcEEbRKNSt7__cxx1112basic_stringIT_T0_T1_EEPKS5_(ptr noundef nonnull align 8 dereferenceable(32) %34, ptr noundef @.str.12)
  br i1 %35, label %36, label %48

36:                                               ; preds = %31
  %37 = load i32, ptr %8, align 4, !tbaa !25
  %38 = add nsw i32 %37, 1
  %39 = call noundef i32 @_ZN5Yosys7GetSizeISt6vectorINSt7__cxx1112basic_stringIcSt11char_traitsIcESaIcEEESaIS7_EEEEiRKT_(ptr noundef nonnull align 8 dereferenceable(24) %1)
  %40 = icmp slt i32 %38, %39
  br i1 %40, label %41, label %48

41:                                               ; preds = %36
  %42 = load i32, ptr %8, align 4, !tbaa !25
  %43 = add nsw i32 %42, 1
  store i32 %43, ptr %8, align 4, !tbaa !25
  %44 = sext i32 %43 to i64
  %45 = call noundef nonnull align 8 dereferenceable(32) ptr @_ZNSt6vectorINSt7__cxx1112basic_stringIcSt11char_traitsIcESaIcEEESaIS5_EEixEm(ptr noundef nonnull align 8 dereferenceable(24) %1, i64 noundef %44) #3
  %46 = call noundef ptr @_ZNKSt7__cxx1112basic_stringIcSt11char_traitsIcESaIcEE5c_strEv(ptr noundef nonnull align 8 dereferenceable(32) %45) #3
  %47 = call i32 @atoi(ptr noundef %46) #23
  store i32 %47, ptr @_ZN12_GLOBAL__N_116xorshift32_stateE, align 4, !tbaa !25
  br label %49

48:                                               ; preds = %36, %31
  br label %52

49:                                               ; preds = %41, %24
  %50 = load i32, ptr %8, align 4, !tbaa !25
  %51 = add nsw i32 %50, 1
  store i32 %51, ptr %8, align 4, !tbaa !25
  br label %10, !llvm.loop !27

52:                                               ; preds = %48, %10
  %53 = load i32, ptr @_ZN12_GLOBAL__N_116xorshift32_stateE, align 4, !tbaa !25
  %54 = icmp eq i32 %53, 0
  br i1 %54, label %55, label %59

55:                                               ; preds = %52
  %56 = call i64 @time(ptr noundef null) #3
  %57 = and i64 %56, 2147483647
  %58 = trunc i64 %57 to i32
  store i32 %58, ptr @_ZN12_GLOBAL__N_116xorshift32_stateE, align 4, !tbaa !25
  br label %59

59:                                               ; preds = %55, %52
  call void @llvm.lifetime.start.p0(i64 4, ptr %9) #3
  store i32 0, ptr %9, align 4, !tbaa !25
  br label %60

60:                                               ; preds = %66, %59
  %61 = load i32, ptr %9, align 4, !tbaa !25
  %62 = load i32, ptr %7, align 4, !tbaa !25
  %63 = icmp slt i32 %61, %62
  br i1 %63, label %65, label %64

64:                                               ; preds = %60
  call void @llvm.lifetime.end.p0(i64 4, ptr %9) #3
  br label %69

65:                                               ; preds = %60
  call void @_ZN12_GLOBAL__N_112test_abcloopEv()
  br label %66

66:                                               ; preds = %65
  %67 = load i32, ptr %9, align 4, !tbaa !25
  %68 = add nsw i32 %67, 1
  store i32 %68, ptr %9, align 4, !tbaa !25
  br label %60, !llvm.loop !29

69:                                               ; preds = %64
  call void @llvm.lifetime.end.p0(i64 4, ptr %8) #3
  call void @llvm.lifetime.end.p0(i64 4, ptr %7) #3
  ret void
}