; Function Attrs: mustprogress uwtable
define internal void @_ZN12_GLOBAL__N_115TestAbcloopPass7executeESt6vectorINSt7__cxx1112basic_stringIcSt11char_traitsIcESaIcEEESaIS7_EEPN5Yosys5RTLIL6DesignE(ptr nonnull readnone align 8 captures(none) %0, ptr noundef readonly captures(none) %1, ptr readnone captures(none) %2) unnamed_addr #5 align 2 {
  store i32 0, ptr @_ZN12_GLOBAL__N_116xorshift32_stateE, align 4, !tbaa !6
  %4 = getelementptr inbounds nuw i8, ptr %1, i64 8
  %5 = load ptr, ptr %4, align 8, !tbaa !10
  %6 = load ptr, ptr %1, align 8, !tbaa !14
  %7 = ptrtoint ptr %5 to i64
  %8 = ptrtoint ptr %6 to i64
  %9 = sub i64 %7, %8
  %10 = lshr exact i64 %9, 5
  %11 = trunc i64 %10 to i32
  %12 = icmp sgt i32 %11, 1
  br i1 %12, label %.lr.ph, label %._crit_edge.thread

.lr.ph:                                           ; preds = %3, %53
  %13 = phi ptr [ %56, %53 ], [ %6, %3 ]
  %.01117 = phi i32 [ %54, %53 ], [ 1, %3 ]
  %.01216 = phi i32 [ %.113, %53 ], [ 100, %3 ]
  %14 = sext i32 %.01117 to i64
  %15 = getelementptr inbounds nuw %"class.std::__cxx11::basic_string", ptr %13, i64 %14
  %16 = tail call noundef i32 @_ZNKSt7__cxx1112basic_stringIcSt11char_traitsIcESaIcEE7compareEPKc(ptr noundef nonnull align 8 dereferenceable(32) %15, ptr noundef nonnull @.str.11) #27
  %17 = icmp eq i32 %16, 0
  %.pre = load ptr, ptr %1, align 8, !tbaa !14
  br i1 %17, label %18, label %33

18:                                               ; preds = %.lr.ph
  %19 = add nsw i32 %.01117, 1
  %20 = load ptr, ptr %4, align 8, !tbaa !10
  %21 = ptrtoint ptr %20 to i64
  %22 = ptrtoint ptr %.pre to i64
  %23 = sub i64 %21, %22
  %24 = lshr exact i64 %23, 5
  %25 = trunc i64 %24 to i32
  %26 = icmp slt i32 %19, %25
  br i1 %26, label %27, label %33

27:                                               ; preds = %18
  %28 = sext i32 %19 to i64
  %29 = getelementptr inbounds nuw %"class.std::__cxx11::basic_string", ptr %.pre, i64 %28
  %30 = load ptr, ptr %29, align 8, !tbaa !15
  %31 = tail call i64 @strtol(ptr noundef nonnull captures(none) %30, ptr noundef null, i32 noundef 10) #27
  %32 = trunc i64 %31 to i32
  br label %53

33:                                               ; preds = %18, %.lr.ph
  %34 = getelementptr inbounds nuw %"class.std::__cxx11::basic_string", ptr %.pre, i64 %14
  %35 = tail call noundef i32 @_ZNKSt7__cxx1112basic_stringIcSt11char_traitsIcESaIcEE7compareEPKc(ptr noundef nonnull align 8 dereferenceable(32) %34, ptr noundef nonnull @.str.12) #27
  %36 = icmp eq i32 %35, 0
  br i1 %36, label %37, label %._crit_edge

37:                                               ; preds = %33
  %38 = add nsw i32 %.01117, 1
  %39 = load ptr, ptr %4, align 8, !tbaa !10
  %40 = load ptr, ptr %1, align 8, !tbaa !14
  %41 = ptrtoint ptr %39 to i64
  %42 = ptrtoint ptr %40 to i64
  %43 = sub i64 %41, %42
  %44 = lshr exact i64 %43, 5
  %45 = trunc i64 %44 to i32
  %46 = icmp slt i32 %38, %45
  br i1 %46, label %47, label %._crit_edge

47:                                               ; preds = %37
  %48 = sext i32 %38 to i64
  %49 = getelementptr inbounds nuw %"class.std::__cxx11::basic_string", ptr %40, i64 %48
  %50 = load ptr, ptr %49, align 8, !tbaa !15
  %51 = tail call i64 @strtol(ptr noundef nonnull captures(none) %50, ptr noundef null, i32 noundef 10) #27
  %52 = trunc i64 %51 to i32
  store i32 %52, ptr @_ZN12_GLOBAL__N_116xorshift32_stateE, align 4, !tbaa !6
  br label %53

53:                                               ; preds = %47, %27
  %.113 = phi i32 [ %32, %27 ], [ %.01216, %47 ]
  %.1 = phi i32 [ %19, %27 ], [ %38, %47 ]
  %54 = add nuw nsw i32 %.1, 1
  %55 = load ptr, ptr %4, align 8, !tbaa !10
  %56 = load ptr, ptr %1, align 8, !tbaa !14
  %57 = ptrtoint ptr %55 to i64
  %58 = ptrtoint ptr %56 to i64
  %59 = sub i64 %57, %58
  %60 = lshr exact i64 %59, 5
  %61 = trunc i64 %60 to i32
  %62 = icmp slt i32 %54, %61
  br i1 %62, label %.lr.ph, label %._crit_edge, !llvm.loop !20

._crit_edge:                                      ; preds = %53, %37, %33
  %.012.lcssa.ph = phi i32 [ %.113, %53 ], [ %.01216, %37 ], [ %.01216, %33 ]
  %.pre26 = load i32, ptr @_ZN12_GLOBAL__N_116xorshift32_stateE, align 4, !tbaa !6
  %63 = icmp eq i32 %.pre26, 0
  br i1 %63, label %._crit_edge.thread, label %67

._crit_edge.thread:                               ; preds = %3, %._crit_edge
  %.012.lcssa29 = phi i32 [ %.012.lcssa.ph, %._crit_edge ], [ 100, %3 ]
  %64 = tail call i64 @time(ptr noundef null) #27
  %65 = trunc i64 %64 to i32
  %66 = and i32 %65, 2147483647
  store i32 %66, ptr @_ZN12_GLOBAL__N_116xorshift32_stateE, align 4, !tbaa !6
  br label %67

67:                                               ; preds = %._crit_edge.thread, %._crit_edge
  %.012.lcssa28 = phi i32 [ %.012.lcssa29, %._crit_edge.thread ], [ %.012.lcssa.ph, %._crit_edge ]
  %68 = icmp sgt i32 %.012.lcssa28, 0
  br i1 %68, label %.lr.ph24, label %._crit_edge25

._crit_edge25:                                    ; preds = %.lr.ph24, %67
  ret void

.lr.ph24:                                         ; preds = %67, %.lr.ph24
  %.022 = phi i32 [ %69, %.lr.ph24 ], [ 0, %67 ]
  tail call fastcc void @_ZN12_GLOBAL__N_112test_abcloopEv()
  %69 = add nuw nsw i32 %.022, 1
  %exitcond.not = icmp eq i32 %69, %.012.lcssa28
  br i1 %exitcond.not, label %._crit_edge25, label %.lr.ph24, !llvm.loop !22
}